target datalayout = "e-m:e-p270:32:32-p271:32:32-p272:64:64-i64:64-i128:128-f80:128-n8:16:32:64-S128"
target triple = "x86_64-pc-linux-gnu"

%struct.yy_buffer_state = type { ptr, ptr, ptr, i32, i32, i32, i32, i32, i32, i32, i32, i32 }

@frontend_verilog_yyin = global ptr null, align 8
@frontend_verilog_yytext = global ptr null, align 8
@_ZL15yy_buffer_stack = internal global ptr null, align 8
@_ZL19yy_buffer_stack_top = internal global i64 0, align 8
@_ZL11yy_more_len = internal global i32 0, align 4
@_ZL10yy_c_buf_p = internal global ptr null, align 8
@_ZL10yy_n_chars = internal global i32 0, align 4
@.str.19 = private unnamed_addr constant [56 x i8] c"fatal flex scanner internal error--end of buffer missed\00", align 1
@.str.20 = private unnamed_addr constant [72 x i8] c"input buffer overflow, can't enlarge buffer because scanner uses REJECT\00", align 1
@_ZN5Yosys16VERILOG_FRONTEND5lexinE = external global ptr, align 8
@.str.21 = private unnamed_addr constant [46 x i8] c"out of dynamic memory in yy_get_next_buffer()\00", align 1

; Function Attrs: mustprogress nounwind uwtable
define noundef ptr @_Z26frontend_verilog_yyreallocPvm(ptr noundef %0, i64 noundef %1) #4 {
  %3 = alloca ptr, align 8
  %4 = alloca i64, align 8
  store ptr %0, ptr %3, align 8, !tbaa !282
  store i64 %1, ptr %4, align 8, !tbaa !33
  %5 = load ptr, ptr %3, align 8, !tbaa !282
  %6 = load i64, ptr %4, align 8, !tbaa !33
  %7 = call ptr @realloc(ptr noundef %5, i64 noundef %6) #31
  ret ptr %7
}

; Function Attrs: mustprogress uwtable
define internal noundef i32 @_ZL18yy_get_next_bufferv() #5 {
  %1 = alloca i32, align 4
  %2 = alloca ptr, align 8
  %3 = alloca ptr, align 8
  %4 = alloca i32, align 4
  %5 = alloca i32, align 4
  %6 = alloca i32, align 4
  %7 = alloca i32, align 4
  %8 = alloca i32, align 4
  %9 = alloca i32, align 4
  call void @llvm.lifetime.start.p0(i64 8, ptr %2) #3
  %10 = load ptr, ptr @_ZL15yy_buffer_stack, align 8, !tbaa !30
  %11 = load i64, ptr @_ZL19yy_buffer_stack_top, align 8, !tbaa !33
  %12 = getelementptr inbounds nuw ptr, ptr %10, i64 %11
  %13 = load ptr, ptr %12, align 8, !tbaa !35
  %14 = getelementptr inbounds nuw %struct.yy_buffer_state, ptr %13, i32 0, i32 1
  %15 = load ptr, ptr %14, align 8, !tbaa !257
  store ptr %15, ptr %2, align 8, !tbaa !37
  call void @llvm.lifetime.start.p0(i64 8, ptr %3) #3
  %16 = load ptr, ptr @frontend_verilog_yytext, align 8, !tbaa !37
  store ptr %16, ptr %3, align 8, !tbaa !37
  call void @llvm.lifetime.start.p0(i64 4, ptr %4) #3
  call void @llvm.lifetime.start.p0(i64 4, ptr %5) #3
  call void @llvm.lifetime.start.p0(i64 4, ptr %6) #3
  %17 = load ptr, ptr @_ZL10yy_c_buf_p, align 8, !tbaa !37
  %18 = load ptr, ptr @_ZL15yy_buffer_stack, align 8, !tbaa !30
  %19 = load i64, ptr @_ZL19yy_buffer_stack_top, align 8, !tbaa !33
  %20 = getelementptr inbounds nuw ptr, ptr %18, i64 %19
  %21 = load ptr, ptr %20, align 8, !tbaa !35
  %22 = getelementptr inbounds nuw %struct.yy_buffer_state, ptr %21, i32 0, i32 1
  %23 = load ptr, ptr %22, align 8, !tbaa !257
  %24 = load i32, ptr @_ZL10yy_n_chars, align 4, !tbaa !25
  %25 = add nsw i32 %24, 1
  %26 = sext i32 %25 to i64
  %27 = getelementptr inbounds i8, ptr %23, i64 %26
  %28 = icmp ugt ptr %17, %27
  br i1 %28, label %29, label %30

29:                                               ; preds = %0
  call void @_ZL14yy_fatal_errorPKc(ptr noundef @.str.19) #25
  unreachable

30:                                               ; preds = %0
  %31 = load ptr, ptr @_ZL15yy_buffer_stack, align 8, !tbaa !30
  %32 = load i64, ptr @_ZL19yy_buffer_stack_top, align 8, !tbaa !33
  %33 = getelementptr inbounds nuw ptr, ptr %31, i64 %32
  %34 = load ptr, ptr %33, align 8, !tbaa !35
  %35 = getelementptr inbounds nuw %struct.yy_buffer_state, ptr %34, i32 0, i32 10
  %36 = load i32, ptr %35, align 4, !tbaa !275
  %37 = icmp eq i32 %36, 0
  br i1 %37, label %38, label %50

38:                                               ; preds = %30
  %39 = load ptr, ptr @_ZL10yy_c_buf_p, align 8, !tbaa !37
  %40 = load ptr, ptr @frontend_verilog_yytext, align 8, !tbaa !37
  %41 = ptrtoint ptr %39 to i64
  %42 = ptrtoint ptr %40 to i64
  %43 = sub i64 %41, %42
  %44 = load i32, ptr @_ZL11yy_more_len, align 4, !tbaa !25
  %45 = sext i32 %44 to i64
  %46 = sub nsw i64 %43, %45
  %47 = icmp eq i64 %46, 1
  br i1 %47, label %48, label %49

48:                                               ; preds = %38
  store i32 1, ptr %1, align 4
  store i32 1, ptr %7, align 4
  br label %218

49:                                               ; preds = %38
  store i32 2, ptr %1, align 4
  store i32 1, ptr %7, align 4
  br label %218

50:                                               ; preds = %30
  %51 = load ptr, ptr @_ZL10yy_c_buf_p, align 8, !tbaa !37
  %52 = load ptr, ptr @frontend_verilog_yytext, align 8, !tbaa !37
  %53 = ptrtoint ptr %51 to i64
  %54 = ptrtoint ptr %52 to i64
  %55 = sub i64 %53, %54
  %56 = sub nsw i64 %55, 1
  %57 = trunc i64 %56 to i32
  store i32 %57, ptr %4, align 4, !tbaa !25
  store i32 0, ptr %5, align 4, !tbaa !25
  br label %58

58:                                               ; preds = %68, %50
  %59 = load i32, ptr %5, align 4, !tbaa !25
  %60 = load i32, ptr %4, align 4, !tbaa !25
  %61 = icmp slt i32 %59, %60
  br i1 %61, label %62, label %71

62:                                               ; preds = %58
  %63 = load ptr, ptr %3, align 8, !tbaa !37
  %64 = getelementptr inbounds nuw i8, ptr %63, i32 1
  store ptr %64, ptr %3, align 8, !tbaa !37
  %65 = load i8, ptr %63, align 1, !tbaa !39
  %66 = load ptr, ptr %2, align 8, !tbaa !37
  %67 = getelementptr inbounds nuw i8, ptr %66, i32 1
  store ptr %67, ptr %2, align 8, !tbaa !37
  store i8 %65, ptr %66, align 1, !tbaa !39
  br label %68

68:                                               ; preds = %62
  %69 = load i32, ptr %5, align 4, !tbaa !25
  %70 = add nsw i32 %69, 1
  store i32 %70, ptr %5, align 4, !tbaa !25
  br label %58, !llvm.loop !276

71:                                               ; preds = %58
  %72 = load ptr, ptr @_ZL15yy_buffer_stack, align 8, !tbaa !30
  %73 = load i64, ptr @_ZL19yy_buffer_stack_top, align 8, !tbaa !33
  %74 = getelementptr inbounds nuw ptr, ptr %72, i64 %73
  %75 = load ptr, ptr %74, align 8, !tbaa !35
  %76 = getelementptr inbounds nuw %struct.yy_buffer_state, ptr %75, i32 0, i32 11
  %77 = load i32, ptr %76, align 8, !tbaa !253
  %78 = icmp eq i32 %77, 2
  br i1 %78, label %79, label %85

79:                                               ; preds = %71
  store i32 0, ptr @_ZL10yy_n_chars, align 4, !tbaa !25
  %80 = load ptr, ptr @_ZL15yy_buffer_stack, align 8, !tbaa !30
  %81 = load i64, ptr @_ZL19yy_buffer_stack_top, align 8, !tbaa !33
  %82 = getelementptr inbounds nuw ptr, ptr %80, i64 %81
  %83 = load ptr, ptr %82, align 8, !tbaa !35
  %84 = getelementptr inbounds nuw %struct.yy_buffer_state, ptr %83, i32 0, i32 4
  store i32 0, ptr %84, align 4, !tbaa !255
  br label %122

85:                                               ; preds = %71
  call void @llvm.lifetime.start.p0(i64 4, ptr %8) #3
  %86 = load ptr, ptr @_ZL15yy_buffer_stack, align 8, !tbaa !30
  %87 = load i64, ptr @_ZL19yy_buffer_stack_top, align 8, !tbaa !33
  %88 = getelementptr inbounds nuw ptr, ptr %86, i64 %87
  %89 = load ptr, ptr %88, align 8, !tbaa !35
  %90 = getelementptr inbounds nuw %struct.yy_buffer_state, ptr %89, i32 0, i32 3
  %91 = load i32, ptr %90, align 8, !tbaa !259
  %92 = load i32, ptr %4, align 4, !tbaa !25
  %93 = sub nsw i32 %91, %92
  %94 = sub nsw i32 %93, 1
  store i32 %94, ptr %8, align 4, !tbaa !25
  br label %95

95:                                               ; preds = %85
  %96 = load i32, ptr %8, align 4, !tbaa !25
  %97 = icmp sle i32 %96, 0
  br i1 %97, label %98, label %99

98:                                               ; preds = %95
  call void @_ZL14yy_fatal_errorPKc(ptr noundef @.str.20) #25
  unreachable

99:                                               ; preds = %95
  %100 = load i32, ptr %8, align 4, !tbaa !25
  %101 = icmp sgt i32 %100, 8192
  br i1 %101, label %102, label %103

102:                                              ; preds = %99
  store i32 8192, ptr %8, align 4, !tbaa !25
  br label %103

103:                                              ; preds = %102, %99
  %104 = load ptr, ptr @_ZN5Yosys16VERILOG_FRONTEND5lexinE, align 8, !tbaa !277
  %105 = load ptr, ptr @_ZL15yy_buffer_stack, align 8, !tbaa !30
  %106 = load i64, ptr @_ZL19yy_buffer_stack_top, align 8, !tbaa !33
  %107 = getelementptr inbounds nuw ptr, ptr %105, i64 %106
  %108 = load ptr, ptr %107, align 8, !tbaa !35
  %109 = getelementptr inbounds nuw %struct.yy_buffer_state, ptr %108, i32 0, i32 1
  %110 = load ptr, ptr %109, align 8, !tbaa !257
  %111 = load i32, ptr %4, align 4, !tbaa !25
  %112 = sext i32 %111 to i64
  %113 = getelementptr inbounds i8, ptr %110, i64 %112
  %114 = load i32, ptr %8, align 4, !tbaa !25
  %115 = call noundef i32 @_ZN5Yosys8readsomeERSiPci(ptr noundef nonnull align 8 dereferenceable(16) %104, ptr noundef %113, i32 noundef %114)
  store i32 %115, ptr @_ZL10yy_n_chars, align 4, !tbaa !25
  %116 = load i32, ptr @_ZL10yy_n_chars, align 4, !tbaa !25
  %117 = load ptr, ptr @_ZL15yy_buffer_stack, align 8, !tbaa !30
  %118 = load i64, ptr @_ZL19yy_buffer_stack_top, align 8, !tbaa !33
  %119 = getelementptr inbounds nuw ptr, ptr %117, i64 %118
  %120 = load ptr, ptr %119, align 8, !tbaa !35
  %121 = getelementptr inbounds nuw %struct.yy_buffer_state, ptr %120, i32 0, i32 4
  store i32 %116, ptr %121, align 4, !tbaa !255
  call void @llvm.lifetime.end.p0(i64 4, ptr %8) #3
  br label %122

122:                                              ; preds = %103, %79
  %123 = load i32, ptr @_ZL10yy_n_chars, align 4, !tbaa !25
  %124 = icmp eq i32 %123, 0
  br i1 %124, label %125, label %138

125:                                              ; preds = %122
  %126 = load i32, ptr %4, align 4, !tbaa !25
  %127 = load i32, ptr @_ZL11yy_more_len, align 4, !tbaa !25
  %128 = icmp eq i32 %126, %127
  br i1 %128, label %129, label %131

129:                                              ; preds = %125
  store i32 1, ptr %6, align 4, !tbaa !25
  %130 = load ptr, ptr @frontend_verilog_yyin, align 8, !tbaa !28
  call void @_Z26frontend_verilog_yyrestartP8_IO_FILE(ptr noundef %130)
  br label %137

131:                                              ; preds = %125
  store i32 2, ptr %6, align 4, !tbaa !25
  %132 = load ptr, ptr @_ZL15yy_buffer_stack, align 8, !tbaa !30
  %133 = load i64, ptr @_ZL19yy_buffer_stack_top, align 8, !tbaa !33
  %134 = getelementptr inbounds nuw ptr, ptr %132, i64 %133
  %135 = load ptr, ptr %134, align 8, !tbaa !35
  %136 = getelementptr inbounds nuw %struct.yy_buffer_state, ptr %135, i32 0, i32 11
  store i32 2, ptr %136, align 8, !tbaa !253
  br label %137

137:                                              ; preds = %131, %129
  br label %139

138:                                              ; preds = %122
  store i32 0, ptr %6, align 4, !tbaa !25
  br label %139

139:                                              ; preds = %138, %137
  %140 = load i32, ptr @_ZL10yy_n_chars, align 4, !tbaa !25
  %141 = load i32, ptr %4, align 4, !tbaa !25
  %142 = add nsw i32 %140, %141
  %143 = load ptr, ptr @_ZL15yy_buffer_stack, align 8, !tbaa !30
  %144 = load i64, ptr @_ZL19yy_buffer_stack_top, align 8, !tbaa !33
  %145 = getelementptr inbounds nuw ptr, ptr %143, i64 %144
  %146 = load ptr, ptr %145, align 8, !tbaa !35
  %147 = getelementptr inbounds nuw %struct.yy_buffer_state, ptr %146, i32 0, i32 3
  %148 = load i32, ptr %147, align 8, !tbaa !259
  %149 = icmp sgt i32 %142, %148
  br i1 %149, label %150, label %187

150:                                              ; preds = %139
  call void @llvm.lifetime.start.p0(i64 4, ptr %9) #3
  %151 = load i32, ptr @_ZL10yy_n_chars, align 4, !tbaa !25
  %152 = load i32, ptr %4, align 4, !tbaa !25
  %153 = add nsw i32 %151, %152
  %154 = load i32, ptr @_ZL10yy_n_chars, align 4, !tbaa !25
  %155 = ashr i32 %154, 1
  %156 = add nsw i32 %153, %155
  store i32 %156, ptr %9, align 4, !tbaa !25
  %157 = load ptr, ptr @_ZL15yy_buffer_stack, align 8, !tbaa !30
  %158 = load i64, ptr @_ZL19yy_buffer_stack_top, align 8, !tbaa !33
  %159 = getelementptr inbounds nuw ptr, ptr %157, i64 %158
  %160 = load ptr, ptr %159, align 8, !tbaa !35
  %161 = getelementptr inbounds nuw %struct.yy_buffer_state, ptr %160, i32 0, i32 1
  %162 = load ptr, ptr %161, align 8, !tbaa !257
  %163 = load i32, ptr %9, align 4, !tbaa !25
  %164 = sext i32 %163 to i64
  %165 = call noundef ptr @_Z26frontend_verilog_yyreallocPvm(ptr noundef %162, i64 noundef %164)
  %166 = load ptr, ptr @_ZL15yy_buffer_stack, align 8, !tbaa !30
  %167 = load i64, ptr @_ZL19yy_buffer_stack_top, align 8, !tbaa !33
  %168 = getelementptr inbounds nuw ptr, ptr %166, i64 %167
  %169 = load ptr, ptr %168, align 8, !tbaa !35
  %170 = getelementptr inbounds nuw %struct.yy_buffer_state, ptr %169, i32 0, i32 1
  store ptr %165, ptr %170, align 8, !tbaa !257
  %171 = load ptr, ptr @_ZL15yy_buffer_stack, align 8, !tbaa !30
  %172 = load i64, ptr @_ZL19yy_buffer_stack_top, align 8, !tbaa !33
  %173 = getelementptr inbounds nuw ptr, ptr %171, i64 %172
  %174 = load ptr, ptr %173, align 8, !tbaa !35
  %175 = getelementptr inbounds nuw %struct.yy_buffer_state, ptr %174, i32 0, i32 1
  %176 = load ptr, ptr %175, align 8, !tbaa !257
  %177 = icmp ne ptr %176, null
  br i1 %177, label %179, label %178

178:                                              ; preds = %150
  call void @_ZL14yy_fatal_errorPKc(ptr noundef @.str.21) #25
  unreachable

179:                                              ; preds = %150
  %180 = load i32, ptr %9, align 4, !tbaa !25
  %181 = sub nsw i32 %180, 2
  %182 = load ptr, ptr @_ZL15yy_buffer_stack, align 8, !tbaa !30
  %183 = load i64, ptr @_ZL19yy_buffer_stack_top, align 8, !tbaa !33
  %184 = getelementptr inbounds nuw ptr, ptr %182, i64 %183
  %185 = load ptr, ptr %184, align 8, !tbaa !35
  %186 = getelementptr inbounds nuw %struct.yy_buffer_state, ptr %185, i32 0, i32 3
  store i32 %181, ptr %186, align 8, !tbaa !259
  call void @llvm.lifetime.end.p0(i64 4, ptr %9) #3
  br label %187

187:                                              ; preds = %179, %139
  %188 = load i32, ptr %4, align 4, !tbaa !25
  %189 = load i32, ptr @_ZL10yy_n_chars, align 4, !tbaa !25
  %190 = add nsw i32 %189, %188
  store i32 %190, ptr @_ZL10yy_n_chars, align 4, !tbaa !25
  %191 = load ptr, ptr @_ZL15yy_buffer_stack, align 8, !tbaa !30
  %192 = load i64, ptr @_ZL19yy_buffer_stack_top, align 8, !tbaa !33
  %193 = getelementptr inbounds nuw ptr, ptr %191, i64 %192
  %194 = load ptr, ptr %193, align 8, !tbaa !35
  %195 = getelementptr inbounds nuw %struct.yy_buffer_state, ptr %194, i32 0, i32 1
  %196 = load ptr, ptr %195, align 8, !tbaa !257
  %197 = load i32, ptr @_ZL10yy_n_chars, align 4, !tbaa !25
  %198 = sext i32 %197 to i64
  %199 = getelementptr inbounds i8, ptr %196, i64 %198
  store i8 0, ptr %199, align 1, !tbaa !39
  %200 = load ptr, ptr @_ZL15yy_buffer_stack, align 8, !tbaa !30
  %201 = load i64, ptr @_ZL19yy_buffer_stack_top, align 8, !tbaa !33
  %202 = getelementptr inbounds nuw ptr, ptr %200, i64 %201
  %203 = load ptr, ptr %202, align 8, !tbaa !35
  %204 = getelementptr inbounds nuw %struct.yy_buffer_state, ptr %203, i32 0, i32 1
  %205 = load ptr, ptr %204, align 8, !tbaa !257
  %206 = load i32, ptr @_ZL10yy_n_chars, align 4, !tbaa !25
  %207 = add nsw i32 %206, 1
  %208 = sext i32 %207 to i64
  %209 = getelementptr inbounds i8, ptr %205, i64 %208
  store i8 0, ptr %209, align 1, !tbaa !39
  %210 = load ptr, ptr @_ZL15yy_buffer_stack, align 8, !tbaa !30
  %211 = load i64, ptr @_ZL19yy_buffer_stack_top, align 8, !tbaa !33
  %212 = getelementptr inbounds nuw ptr, ptr %210, i64 %211
  %213 = load ptr, ptr %212, align 8, !tbaa !35
  %214 = getelementptr inbounds nuw %struct.yy_buffer_state, ptr %213, i32 0, i32 1
  %215 = load ptr, ptr %214, align 8, !tbaa !257
  %216 = getelementptr inbounds i8, ptr %215, i64 0
  store ptr %216, ptr @frontend_verilog_yytext, align 8, !tbaa !37
  %217 = load i32, ptr %6, align 4, !tbaa !25
  store i32 %217, ptr %1, align 4
  store i32 1, ptr %7, align 4
  br label %218

218:                                              ; preds = %187, %49, %48
  call void @llvm.lifetime.end.p0(i64 4, ptr %6) #3
  call void @llvm.lifetime.end.p0(i64 4, ptr %5) #3
  call void @llvm.lifetime.end.p0(i64 4, ptr %4) #3
  call void @llvm.lifetime.end.p0(i64 8, ptr %3) #3
  call void @llvm.lifetime.end.p0(i64 8, ptr %2) #3
  %219 = load i32, ptr %1, align 4
  ret i32 %219
}