; Function Attrs: mustprogress uwtable
define internal fastcc noundef range(i32 0, 3) i32 @_ZL18yy_get_next_bufferv() unnamed_addr #4 {
  %1 = load ptr, ptr @_ZL15yy_buffer_stack, align 8, !tbaa !32
  %2 = load i64, ptr @_ZL19yy_buffer_stack_top, align 8, !tbaa !35
  %3 = getelementptr inbounds nuw ptr, ptr %1, i64 %2
  %4 = load ptr, ptr %3, align 8, !tbaa !36
  %5 = getelementptr inbounds nuw i8, ptr %4, i64 8
  %6 = load ptr, ptr %5, align 8, !tbaa !40
  %7 = load ptr, ptr @frontend_verilog_yytext, align 8, !tbaa !44
  %8 = load ptr, ptr @_ZL10yy_c_buf_p, align 8, !tbaa !44
  %9 = load i32, ptr @_ZL10yy_n_chars, align 4, !tbaa !28
  %10 = sext i32 %9 to i64
  %11 = getelementptr i8, ptr %6, i64 %10
  %12 = getelementptr i8, ptr %11, i64 1
  %13 = icmp ugt ptr %8, %12
  br i1 %13, label %14, label %15

14:                                               ; preds = %0
  tail call fastcc void @_ZL14yy_fatal_errorPKc(ptr noundef nonnull @.str.19) #40
  unreachable

15:                                               ; preds = %0
  %16 = getelementptr inbounds nuw i8, ptr %4, i64 52
  %17 = load i32, ptr %16, align 4, !tbaa !282
  %18 = icmp eq i32 %17, 0
  %19 = ptrtoint ptr %8 to i64
  %20 = ptrtoint ptr %7 to i64
  br i1 %18, label %21, label %27

21:                                               ; preds = %15
  %22 = load i32, ptr @_ZL11yy_more_len, align 4, !tbaa !28
  %23 = sext i32 %22 to i64
  %24 = add i64 %20, %23
  %25 = sub i64 %19, %24
  %26 = icmp eq i64 %25, 1
  %. = select i1 %26, i32 1, i32 2
  br label %107

27:                                               ; preds = %15
  %28 = xor i64 %20, -1
  %29 = add i64 %19, %28
  %30 = trunc i64 %29 to i32
  %31 = icmp sgt i32 %30, 0
  br i1 %31, label %.lr.ph, label %._crit_edge

.lr.ph:                                           ; preds = %27, %.lr.ph
  %.01829 = phi i32 [ %35, %.lr.ph ], [ 0, %27 ]
  %.01928 = phi ptr [ %34, %.lr.ph ], [ %6, %27 ]
  %.02027 = phi ptr [ %32, %.lr.ph ], [ %7, %27 ]
  %32 = getelementptr inbounds nuw i8, ptr %.02027, i64 1
  %33 = load i8, ptr %.02027, align 1, !tbaa !19
  %34 = getelementptr inbounds nuw i8, ptr %.01928, i64 1
  store i8 %33, ptr %.01928, align 1, !tbaa !19
  %35 = add nuw nsw i32 %.01829, 1
  %exitcond.not = icmp eq i32 %35, %30
  br i1 %exitcond.not, label %._crit_edge.loopexit, label %.lr.ph, !llvm.loop !283

._crit_edge.loopexit:                             ; preds = %.lr.ph
  %.pre = load ptr, ptr %3, align 8, !tbaa !36
  br label %._crit_edge

._crit_edge:                                      ; preds = %._crit_edge.loopexit, %27
  %36 = phi ptr [ %.pre, %._crit_edge.loopexit ], [ %4, %27 ]
  %37 = getelementptr inbounds nuw i8, ptr %36, i64 56
  %38 = load i32, ptr %37, align 8, !tbaa !260
  %39 = icmp eq i32 %38, 2
  br i1 %39, label %.thread, label %41

.thread:                                          ; preds = %._crit_edge
  store i32 0, ptr @_ZL10yy_n_chars, align 4, !tbaa !28
  %40 = getelementptr inbounds nuw i8, ptr %36, i64 28
  store i32 0, ptr %40, align 4, !tbaa !42
  br label %62

41:                                               ; preds = %._crit_edge
  %42 = getelementptr inbounds nuw i8, ptr %36, i64 24
  %43 = load i32, ptr %42, align 8, !tbaa !38
  %44 = xor i32 %30, -1
  %45 = add i32 %43, %44
  %46 = icmp slt i32 %45, 1
  br i1 %46, label %47, label %48

47:                                               ; preds = %41
  tail call fastcc void @_ZL14yy_fatal_errorPKc(ptr noundef nonnull @.str.20) #40
  unreachable

48:                                               ; preds = %41
  %49 = tail call i32 @llvm.umin.i32(i32 %45, i32 8192)
  %50 = load ptr, ptr @_ZN5Yosys16VERILOG_FRONTEND5lexinE, align 8, !tbaa !284
  %51 = getelementptr inbounds nuw i8, ptr %36, i64 8
  %52 = load ptr, ptr %51, align 8, !tbaa !40
  %sext = shl i64 %29, 32
  %53 = ashr exact i64 %sext, 32
  %54 = getelementptr inbounds i8, ptr %52, i64 %53
  %55 = tail call noundef i32 @_ZN5Yosys8readsomeERSiPci(ptr noundef nonnull align 8 dereferenceable(16) %50, ptr noundef %54, i32 noundef %49)
  store i32 %55, ptr @_ZL10yy_n_chars, align 4, !tbaa !28
  %56 = load ptr, ptr @_ZL15yy_buffer_stack, align 8, !tbaa !32
  %57 = load i64, ptr @_ZL19yy_buffer_stack_top, align 8, !tbaa !35
  %58 = getelementptr inbounds nuw ptr, ptr %56, i64 %57
  %59 = load ptr, ptr %58, align 8, !tbaa !36
  %60 = getelementptr inbounds nuw i8, ptr %59, i64 28
  store i32 %55, ptr %60, align 4, !tbaa !42
  %61 = icmp eq i32 %55, 0
  br i1 %61, label %62, label %72

62:                                               ; preds = %.thread, %48
  %63 = phi ptr [ %36, %.thread ], [ %59, %48 ]
  %64 = phi i64 [ %2, %.thread ], [ %57, %48 ]
  %65 = phi ptr [ %1, %.thread ], [ %56, %48 ]
  %66 = load i32, ptr @_ZL11yy_more_len, align 4, !tbaa !28
  %67 = icmp eq i32 %66, %30
  br i1 %67, label %68, label %70

68:                                               ; preds = %62
  %69 = load ptr, ptr @frontend_verilog_yyin, align 8, !tbaa !30
  tail call void @_Z26frontend_verilog_yyrestartP8_IO_FILE(ptr noundef %69)
  %.pre30 = load i32, ptr @_ZL10yy_n_chars, align 4, !tbaa !28
  %.pre31 = load ptr, ptr @_ZL15yy_buffer_stack, align 8, !tbaa !32
  %.pre32 = load i64, ptr @_ZL19yy_buffer_stack_top, align 8, !tbaa !35
  %.phi.trans.insert = getelementptr inbounds nuw ptr, ptr %.pre31, i64 %.pre32
  %.pre33 = load ptr, ptr %.phi.trans.insert, align 8, !tbaa !36
  br label %72

70:                                               ; preds = %62
  %71 = getelementptr inbounds nuw i8, ptr %63, i64 56
  store i32 2, ptr %71, align 8, !tbaa !260
  br label %72

72:                                               ; preds = %48, %68, %70
  %73 = phi ptr [ %.pre33, %68 ], [ %63, %70 ], [ %59, %48 ]
  %74 = phi i64 [ %.pre32, %68 ], [ %64, %70 ], [ %57, %48 ]
  %75 = phi ptr [ %.pre31, %68 ], [ %65, %70 ], [ %56, %48 ]
  %76 = phi i32 [ %.pre30, %68 ], [ 0, %70 ], [ %55, %48 ]
  %.017 = phi i32 [ 1, %68 ], [ 2, %70 ], [ 0, %48 ]
  %77 = add nsw i32 %76, %30
  %78 = getelementptr inbounds nuw ptr, ptr %75, i64 %74
  %79 = getelementptr inbounds nuw i8, ptr %73, i64 24
  %80 = load i32, ptr %79, align 8, !tbaa !38
  %81 = icmp sgt i32 %77, %80
  br i1 %81, label %82, label %._crit_edge34

._crit_edge34:                                    ; preds = %72
  %.phi.trans.insert35 = getelementptr inbounds nuw i8, ptr %73, i64 8
  %.pre36 = load ptr, ptr %.phi.trans.insert35, align 8, !tbaa !40
  br label %95

82:                                               ; preds = %72
  %83 = ashr i32 %76, 1
  %84 = add nsw i32 %77, %83
  %85 = getelementptr inbounds nuw i8, ptr %73, i64 8
  %86 = load ptr, ptr %85, align 8, !tbaa !40
  %87 = sext i32 %84 to i64
  %88 = tail call noalias noundef ptr @realloc(ptr noundef %86, i64 noundef %87) #41
  %89 = load ptr, ptr %78, align 8, !tbaa !36
  %90 = getelementptr inbounds nuw i8, ptr %89, i64 8
  store ptr %88, ptr %90, align 8, !tbaa !40
  %.not = icmp eq ptr %88, null
  br i1 %.not, label %91, label %92

91:                                               ; preds = %82
  tail call fastcc void @_ZL14yy_fatal_errorPKc(ptr noundef nonnull @.str.21) #40
  unreachable

92:                                               ; preds = %82
  %93 = add nsw i32 %84, -2
  %94 = getelementptr inbounds nuw i8, ptr %89, i64 24
  store i32 %93, ptr %94, align 8, !tbaa !38
  br label %95

95:                                               ; preds = %._crit_edge34, %92
  %96 = phi ptr [ %88, %92 ], [ %.pre36, %._crit_edge34 ]
  store i32 %77, ptr @_ZL10yy_n_chars, align 4, !tbaa !28
  %97 = sext i32 %77 to i64
  %98 = getelementptr inbounds i8, ptr %96, i64 %97
  store i8 0, ptr %98, align 1, !tbaa !19
  %99 = load ptr, ptr %78, align 8, !tbaa !36
  %100 = getelementptr inbounds nuw i8, ptr %99, i64 8
  %101 = load ptr, ptr %100, align 8, !tbaa !40
  %102 = getelementptr i8, ptr %101, i64 %97
  %103 = getelementptr i8, ptr %102, i64 1
  store i8 0, ptr %103, align 1, !tbaa !19
  %104 = load ptr, ptr %78, align 8, !tbaa !36
  %105 = getelementptr inbounds nuw i8, ptr %104, i64 8
  %106 = load ptr, ptr %105, align 8, !tbaa !40
  store ptr %106, ptr @frontend_verilog_yytext, align 8, !tbaa !44
  br label %107

107:                                              ; preds = %21, %95
  %.0 = phi i32 [ %.017, %95 ], [ %., %21 ]
  ret i32 %.0
}